target datalayout = "e-m:e-p270:32:32-p271:32:32-p272:64:64-i64:64-i128:128-f80:128-n8:16:32:64-S128"
target triple = "x86_64-unknown-linux-gnu"

%"class.QuantLib::AdaptedPathPayoff::ValuationData" = type { ptr, ptr, ptr, ptr, ptr, i64 }

; Function Attrs: mustprogress nounwind uwtable
define void @_ZN8QuantLib17AdaptedPathPayoff13ValuationDataC2ERKNS_6MatrixERKSt6vectorINS_6HandleINS_18YieldTermStructureEEESaIS8_EERNS_5ArrayESE_RS5_ISD_SaISD_EE(ptr noundef nonnull align 8 dereferenceable(48) %this, ptr noundef nonnull align 8 dereferenceable(24) %path, ptr noundef nonnull align 8 dereferenceable(24) %forwardTermStructures, ptr noundef nonnull align 8 dereferenceable(16) %payments, ptr noundef nonnull align 8 dereferenceable(16) %exercises, ptr noundef nonnull align 8 dereferenceable(24) %states) unnamed_addr #4 align 2 {
entry:
  %this.addr = alloca ptr, align 8
  %path.addr = alloca ptr, align 8
  %forwardTermStructures.addr = alloca ptr, align 8
  %payments.addr = alloca ptr, align 8
  %exercises.addr = alloca ptr, align 8
  %states.addr = alloca ptr, align 8
  store ptr %this, ptr %this.addr, align 8, !tbaa !3
  store ptr %path, ptr %path.addr, align 8, !tbaa !3
  store ptr %forwardTermStructures, ptr %forwardTermStructures.addr, align 8, !tbaa !3
  store ptr %payments, ptr %payments.addr, align 8, !tbaa !3
  store ptr %exercises, ptr %exercises.addr, align 8, !tbaa !3
  store ptr %states, ptr %states.addr, align 8, !tbaa !3
  %this1 = load ptr, ptr %this.addr, align 8
  %path_ = getelementptr inbounds nuw %"class.QuantLib::AdaptedPathPayoff::ValuationData", ptr %this1, i32 0, i32 0
  %0 = load ptr, ptr %path.addr, align 8, !tbaa !3
  store ptr %0, ptr %path_, align 8, !tbaa !3
  %forwardTermStructures_ = getelementptr inbounds nuw %"class.QuantLib::AdaptedPathPayoff::ValuationData", ptr %this1, i32 0, i32 1
  %1 = load ptr, ptr %forwardTermStructures.addr, align 8, !tbaa !3
  store ptr %1, ptr %forwardTermStructures_, align 8, !tbaa !3
  %payments_ = getelementptr inbounds nuw %"class.QuantLib::AdaptedPathPayoff::ValuationData", ptr %this1, i32 0, i32 2
  %2 = load ptr, ptr %payments.addr, align 8, !tbaa !3
  store ptr %2, ptr %payments_, align 8, !tbaa !3
  %exercises_ = getelementptr inbounds nuw %"class.QuantLib::AdaptedPathPayoff::ValuationData", ptr %this1, i32 0, i32 3
  %3 = load ptr, ptr %exercises.addr, align 8, !tbaa !3
  store ptr %3, ptr %exercises_, align 8, !tbaa !3
  %states_ = getelementptr inbounds nuw %"class.QuantLib::AdaptedPathPayoff::ValuationData", ptr %this1, i32 0, i32 4
  %4 = load ptr, ptr %states.addr, align 8, !tbaa !3
  store ptr %4, ptr %states_, align 8, !tbaa !3
  %maximumTimeRead_ = getelementptr inbounds nuw %"class.QuantLib::AdaptedPathPayoff::ValuationData", ptr %this1, i32 0, i32 5
  store i64 0, ptr %maximumTimeRead_, align 8, !tbaa !9
  ret void
}