; Function Attrs: mustprogress nofree norecurse nosync nounwind willreturn memory(argmem: write) uwtable
define void @_ZN8QuantLib17AdaptedPathPayoff13ValuationDataC2ERKNS_6MatrixERKSt6vectorINS_6HandleINS_18YieldTermStructureEEESaIS8_EERNS_5ArrayESE_RS5_ISD_SaISD_EE(ptr nocapture noundef nonnull writeonly align 8 dereferenceable(48) %this, ptr noundef nonnull align 8 dereferenceable(24) %path, ptr noundef nonnull align 8 dereferenceable(24) %forwardTermStructures, ptr noundef nonnull align 8 dereferenceable(16) %payments, ptr noundef nonnull align 8 dereferenceable(16) %exercises, ptr noundef nonnull align 8 dereferenceable(24) %states) unnamed_addr #11 align 2 {
entry:
  store ptr %path, ptr %this, align 8, !tbaa !18
  %forwardTermStructures_ = getelementptr inbounds nuw i8, ptr %this, i64 8
  store ptr %forwardTermStructures, ptr %forwardTermStructures_, align 8, !tbaa !18
  %payments_ = getelementptr inbounds nuw i8, ptr %this, i64 16
  store ptr %payments, ptr %payments_, align 8, !tbaa !18
  %exercises_ = getelementptr inbounds nuw i8, ptr %this, i64 24
  store ptr %exercises, ptr %exercises_, align 8, !tbaa !18
  %states_ = getelementptr inbounds nuw i8, ptr %this, i64 32
  store ptr %states, ptr %states_, align 8, !tbaa !18
  %maximumTimeRead_ = getelementptr inbounds nuw i8, ptr %this, i64 40
  store i64 0, ptr %maximumTimeRead_, align 8, !tbaa !19
  ret void
}